(lp1
(lp2
VDAVID WOOD
p3
aVRebecca A. Battista
p4
aVStephanie T. West
p5
aVSusan Houge Mackenzie
p6
aVJulie Son
p7
aa(lp8
S'per691814'
p9
aS'per698097'
p10
aVper807420
p11
aS'per815176'
p12
aS'per727572'
p13
aa.